target datalayout = "e-m:e-p270:32:32-p271:32:32-p272:64:64-i64:64-i128:128-f80:128-n8:16:32:64-S128"
target triple = "x86_64-pc-linux-gnu"

%"class.std::vector" = type { %"struct.std::_Vector_base" }
%"struct.std::_Vector_base" = type { %"struct.std::_Vector_base<int, std::allocator<int>>::_Vector_impl" }
%"struct.std::_Vector_base<int, std::allocator<int>>::_Vector_impl" = type { %"struct.std::_Vector_base<int, std::allocator<int>>::_Vector_impl_data" }
%"struct.std::_Vector_base<int, std::allocator<int>>::_Vector_impl_data" = type { ptr, ptr, ptr }
%"struct.Yosys::RTLIL::IdString" = type { i32 }
%"struct.Yosys::DriveBit" = type { i8, %union.anon }
%union.anon = type { %"struct.Yosys::DriveBitPort", [40 x i8] }
%"struct.Yosys::DriveBitPort" = type { ptr, %"struct.Yosys::RTLIL::IdString", i32 }
%"struct.Yosys::DriveBitMultiple" = type { %"class.Yosys::hashlib::pool" }
%"class.Yosys::hashlib::pool" = type <{ %"class.std::vector", %"class.std::vector.0", [8 x i8] }>
%"class.std::vector.0" = type { %"struct.std::_Vector_base.1" }
%"struct.std::_Vector_base.1" = type { %"struct.std::_Vector_base<Yosys::hashlib::pool<Yosys::DriveBit>::entry_t, std::allocator<Yosys::hashlib::pool<Yosys::DriveBit>::entry_t>>::_Vector_impl" }
%"struct.std::_Vector_base<Yosys::hashlib::pool<Yosys::DriveBit>::entry_t, std::allocator<Yosys::hashlib::pool<Yosys::DriveBit>::entry_t>>::_Vector_impl" = type { %"struct.std::_Vector_base<Yosys::hashlib::pool<Yosys::DriveBit>::entry_t, std::allocator<Yosys::hashlib::pool<Yosys::DriveBit>::entry_t>>::_Vector_impl_data" }
%"struct.std::_Vector_base<Yosys::hashlib::pool<Yosys::DriveBit>::entry_t, std::allocator<Yosys::hashlib::pool<Yosys::DriveBit>::entry_t>>::_Vector_impl_data" = type { ptr, ptr, ptr }
%"struct.std::pair" = type { %"class.Yosys::hashlib::pool<Yosys::DriveBit>::iterator", i8, [7 x i8] }
%"class.Yosys::hashlib::pool<Yosys::DriveBit>::iterator" = type <{ ptr, i32, [4 x i8] }>
%"class.Yosys::hashlib::pool<Yosys::DriveBit>::const_iterator" = type <{ ptr, i32, [4 x i8] }>
%"struct.Yosys::hashlib::pool<Yosys::DriveBit>::entry_t" = type <{ %"struct.Yosys::DriveBit", i32, [4 x i8] }>

; Function Attrs: mustprogress nounwind uwtable
define linkonce_odr noundef nonnull align 8 dereferenceable(68) ptr @_ZNKSt6vectorIN5Yosys7hashlib4poolINS0_8DriveBitENS1_8hash_opsIS3_EEE7entry_tESaIS7_EEixEm(ptr noundef nonnull align 8 dereferenceable(24) %0, i64 noundef %1) #7 comdat align 2 {
  %3 = alloca ptr, align 8
  %4 = alloca i64, align 8
  store ptr %0, ptr %3, align 8, !tbaa !428
  store i64 %1, ptr %4, align 8, !tbaa !121
  %5 = load ptr, ptr %3, align 8
  %6 = getelementptr inbounds nuw %"struct.std::_Vector_base.1", ptr %5, i32 0, i32 0
  %7 = getelementptr inbounds nuw %"struct.std::_Vector_base<Yosys::hashlib::pool<Yosys::DriveBit>::entry_t, std::allocator<Yosys::hashlib::pool<Yosys::DriveBit>::entry_t>>::_Vector_impl_data", ptr %6, i32 0, i32 0
  %8 = load ptr, ptr %7, align 8, !tbaa !440
  %9 = load i64, ptr %4, align 8, !tbaa !121
  %10 = getelementptr inbounds nuw %"struct.Yosys::hashlib::pool<Yosys::DriveBit>::entry_t", ptr %8, i64 %9
  ret ptr %10
}

; Function Attrs: mustprogress nounwind uwtable
define linkonce_odr void @_ZN5Yosys7hashlib4poolINS_8DriveBitENS0_8hash_opsIS2_EEE14const_iteratorC2EPKS5_i(ptr noundef nonnull align 8 dereferenceable(12) %0, ptr noundef %1, i32 noundef %2) unnamed_addr #7 comdat align 2 {
  %4 = alloca ptr, align 8
  %5 = alloca ptr, align 8
  %6 = alloca i32, align 4
  store ptr %0, ptr %4, align 8, !tbaa !82
  store ptr %1, ptr %5, align 8, !tbaa !33
  store i32 %2, ptr %6, align 4, !tbaa !23
  %7 = load ptr, ptr %4, align 8
  %8 = getelementptr inbounds nuw %"class.Yosys::hashlib::pool<Yosys::DriveBit>::const_iterator", ptr %7, i32 0, i32 0
  %9 = load ptr, ptr %5, align 8, !tbaa !33
  store ptr %9, ptr %8, align 8, !tbaa !86
  %10 = getelementptr inbounds nuw %"class.Yosys::hashlib::pool<Yosys::DriveBit>::const_iterator", ptr %7, i32 0, i32 1
  %11 = load i32, ptr %6, align 4, !tbaa !23
  store i32 %11, ptr %10, align 8, !tbaa !84
  ret void
}

; Function Attrs: mustprogress nounwind uwtable
define linkonce_odr noundef i64 @_ZNKSt6vectorIN5Yosys7hashlib4poolINS0_8DriveBitENS1_8hash_opsIS3_EEE7entry_tESaIS7_EE4sizeEv(ptr noundef nonnull align 8 dereferenceable(24) %0) #7 comdat align 2 {
  %2 = alloca ptr, align 8
  store ptr %0, ptr %2, align 8, !tbaa !428
  %3 = load ptr, ptr %2, align 8
  %4 = getelementptr inbounds nuw %"struct.std::_Vector_base.1", ptr %3, i32 0, i32 0
  %5 = getelementptr inbounds nuw %"struct.std::_Vector_base<Yosys::hashlib::pool<Yosys::DriveBit>::entry_t, std::allocator<Yosys::hashlib::pool<Yosys::DriveBit>::entry_t>>::_Vector_impl_data", ptr %4, i32 0, i32 1
  %6 = load ptr, ptr %5, align 8, !tbaa !442
  %7 = getelementptr inbounds nuw %"struct.std::_Vector_base.1", ptr %3, i32 0, i32 0
  %8 = getelementptr inbounds nuw %"struct.std::_Vector_base<Yosys::hashlib::pool<Yosys::DriveBit>::entry_t, std::allocator<Yosys::hashlib::pool<Yosys::DriveBit>::entry_t>>::_Vector_impl_data", ptr %7, i32 0, i32 0
  %9 = load ptr, ptr %8, align 8, !tbaa !440
  %10 = ptrtoint ptr %6 to i64
  %11 = ptrtoint ptr %9 to i64
  %12 = sub i64 %10, %11
  %13 = sdiv exact i64 %12, 72
  ret i64 %13
}

; Function Attrs: mustprogress nounwind uwtable
define linkonce_odr void @_ZN5Yosys8DriveBitD2Ev(ptr noundef nonnull align 8 dereferenceable(64) %0) unnamed_addr #7 comdat align 2 {
  %2 = alloca ptr, align 8
  store ptr %0, ptr %2, align 8, !tbaa !6
  %3 = load ptr, ptr %2, align 8
  call void @_ZN5Yosys8DriveBit8set_noneEv(ptr noundef nonnull align 8 dereferenceable(64) %3)
  ret void
}

; Function Attrs: mustprogress uwtable
define linkonce_odr void @_ZN5Yosys8DriveBitC2ERKS0_(ptr noundef nonnull align 8 dereferenceable(64) %0, ptr noundef nonnull align 8 dereferenceable(64) %1) unnamed_addr #4 comdat align 2 {
  %3 = alloca ptr, align 8
  %4 = alloca ptr, align 8
  store ptr %0, ptr %3, align 8, !tbaa !6
  store ptr %1, ptr %4, align 8, !tbaa !6
  %5 = load ptr, ptr %3, align 8
  %6 = getelementptr inbounds nuw %"struct.Yosys::DriveBit", ptr %5, i32 0, i32 0
  store i8 0, ptr %6, align 8, !tbaa !13
  %7 = load ptr, ptr %4, align 8, !tbaa !6
  %8 = call noundef nonnull align 8 dereferenceable(64) ptr @_ZN5Yosys8DriveBitaSERKS0_(ptr noundef nonnull align 8 dereferenceable(64) %5, ptr noundef nonnull align 8 dereferenceable(64) %7)
  ret void
}

; Function Attrs: mustprogress nounwind uwtable
define linkonce_odr { ptr, i32 } @_ZN5Yosys7hashlib4poolINS_8DriveBitENS0_8hash_opsIS2_EEE14const_iteratorppEv(ptr noundef nonnull align 8 dereferenceable(12) %0) #7 comdat align 2 {
  %2 = alloca %"class.Yosys::hashlib::pool<Yosys::DriveBit>::const_iterator", align 8
  %3 = alloca ptr, align 8
  store ptr %0, ptr %3, align 8, !tbaa !82
  %4 = load ptr, ptr %3, align 8
  %5 = getelementptr inbounds nuw %"class.Yosys::hashlib::pool<Yosys::DriveBit>::const_iterator", ptr %4, i32 0, i32 1
  %6 = load i32, ptr %5, align 8, !tbaa !84
  %7 = add nsw i32 %6, -1
  store i32 %7, ptr %5, align 8, !tbaa !84
  call void @llvm.memcpy.p0.p0.i64(ptr align 8 %2, ptr align 8 %4, i64 16, i1 false), !tbaa.struct !87
  %8 = load { ptr, i32 }, ptr %2, align 8
  ret { ptr, i32 } %8
}

; Function Attrs: mustprogress nounwind uwtable
define linkonce_odr noundef nonnull align 8 dereferenceable(64) ptr @_ZNK5Yosys7hashlib4poolINS_8DriveBitENS0_8hash_opsIS2_EEE14const_iteratordeEv(ptr noundef nonnull align 8 dereferenceable(12) %0) #7 comdat align 2 {
  %2 = alloca ptr, align 8
  store ptr %0, ptr %2, align 8, !tbaa !82
  %3 = load ptr, ptr %2, align 8
  %4 = getelementptr inbounds nuw %"class.Yosys::hashlib::pool<Yosys::DriveBit>::const_iterator", ptr %3, i32 0, i32 0
  %5 = load ptr, ptr %4, align 8, !tbaa !86
  %6 = getelementptr inbounds nuw %"class.Yosys::hashlib::pool", ptr %5, i32 0, i32 1
  %7 = getelementptr inbounds nuw %"class.Yosys::hashlib::pool<Yosys::DriveBit>::const_iterator", ptr %3, i32 0, i32 1
  %8 = load i32, ptr %7, align 8, !tbaa !84
  %9 = sext i32 %8 to i64
  %10 = call noundef nonnull align 8 dereferenceable(68) ptr @_ZNKSt6vectorIN5Yosys7hashlib4poolINS0_8DriveBitENS1_8hash_opsIS3_EEE7entry_tESaIS7_EEixEm(ptr noundef nonnull align 8 dereferenceable(24) %6, i64 noundef %9) #3
  %11 = getelementptr inbounds nuw %"struct.Yosys::hashlib::pool<Yosys::DriveBit>::entry_t", ptr %10, i32 0, i32 0
  ret ptr %11
}

; Function Attrs: mustprogress nounwind uwtable
define linkonce_odr noundef zeroext i1 @_ZNK5Yosys7hashlib4poolINS_8DriveBitENS0_8hash_opsIS2_EEE14const_iteratorneERKS6_(ptr noundef nonnull align 8 dereferenceable(12) %0, ptr noundef nonnull align 8 dereferenceable(12) %1) #7 comdat align 2 {
  %3 = alloca ptr, align 8
  %4 = alloca ptr, align 8
  store ptr %0, ptr %3, align 8, !tbaa !82
  store ptr %1, ptr %4, align 8, !tbaa !82
  %5 = load ptr, ptr %3, align 8
  %6 = getelementptr inbounds nuw %"class.Yosys::hashlib::pool<Yosys::DriveBit>::const_iterator", ptr %5, i32 0, i32 1
  %7 = load i32, ptr %6, align 8, !tbaa !84
  %8 = load ptr, ptr %4, align 8, !tbaa !82
  %9 = getelementptr inbounds nuw %"class.Yosys::hashlib::pool<Yosys::DriveBit>::const_iterator", ptr %8, i32 0, i32 1
  %10 = load i32, ptr %9, align 8, !tbaa !84
  %11 = icmp ne i32 %7, %10
  ret i1 %11
}

; Function Attrs: mustprogress uwtable
define linkonce_odr { ptr, i32 } @_ZNK5Yosys7hashlib4poolINS_8DriveBitENS0_8hash_opsIS2_EEE3endEv(ptr noundef nonnull align 8 dereferenceable(49) %0) #4 comdat align 2 {
  %2 = alloca %"class.Yosys::hashlib::pool<Yosys::DriveBit>::const_iterator", align 8
  %3 = alloca ptr, align 8
  store ptr %0, ptr %3, align 8, !tbaa !33
  call void @_ZN5Yosys7hashlib4poolINS_8DriveBitENS0_8hash_opsIS2_EEE14const_iteratorC2EPKS5_i(ptr noundef nonnull align 8 dereferenceable(12) %2, ptr noundef null, i32 noundef -1)
  %4 = load { ptr, i32 }, ptr %2, align 8
  ret { ptr, i32 } %4
}

; Function Attrs: mustprogress uwtable
define linkonce_odr { ptr, i32 } @_ZNK5Yosys7hashlib4poolINS_8DriveBitENS0_8hash_opsIS2_EEE5beginEv(ptr noundef nonnull align 8 dereferenceable(49) %0) #4 comdat align 2 {
  %2 = alloca %"class.Yosys::hashlib::pool<Yosys::DriveBit>::const_iterator", align 8
  %3 = alloca ptr, align 8
  store ptr %0, ptr %3, align 8, !tbaa !33
  %4 = load ptr, ptr %3, align 8
  %5 = getelementptr inbounds nuw %"class.Yosys::hashlib::pool", ptr %4, i32 0, i32 1
  %6 = call noundef i64 @_ZNKSt6vectorIN5Yosys7hashlib4poolINS0_8DriveBitENS1_8hash_opsIS3_EEE7entry_tESaIS7_EE4sizeEv(ptr noundef nonnull align 8 dereferenceable(24) %5) #3
  %7 = trunc i64 %6 to i32
  %8 = sub nsw i32 %7, 1
  call void @_ZN5Yosys7hashlib4poolINS_8DriveBitENS0_8hash_opsIS2_EEE14const_iteratorC2EPKS5_i(ptr noundef nonnull align 8 dereferenceable(12) %2, ptr noundef %4, i32 noundef %8)
  %9 = load { ptr, i32 }, ptr %2, align 8
  ret { ptr, i32 } %9
}

; Function Attrs: mustprogress uwtable
define linkonce_odr void @_ZN5Yosys7hashlib4poolINS_8DriveBitENS0_8hash_opsIS2_EEE7emplaceIJRKS2_EEESt4pairINS5_8iteratorEbEDpOT_(ptr dead_on_unwind noalias writable sret(%"struct.std::pair") align 8 %0, ptr noundef nonnull align 8 dereferenceable(49) %1, ptr noundef nonnull align 8 dereferenceable(64) %2) #4 comdat align 2 personality ptr @__gxx_personality_v0 {
  %4 = alloca ptr, align 8
  %5 = alloca ptr, align 8
  %6 = alloca %"struct.Yosys::DriveBit", align 8
  %7 = alloca ptr, align 8
  %8 = alloca i32, align 4
  store ptr %1, ptr %4, align 8, !tbaa !33
  store ptr %2, ptr %5, align 8, !tbaa !6
  %9 = load ptr, ptr %4, align 8
  call void @llvm.lifetime.start.p0(i64 64, ptr %6) #3
  %10 = load ptr, ptr %5, align 8, !tbaa !6
  call void @_ZN5Yosys8DriveBitC2ERKS0_(ptr noundef nonnull align 8 dereferenceable(64) %6, ptr noundef nonnull align 8 dereferenceable(64) %10)
  invoke void @_ZN5Yosys7hashlib4poolINS_8DriveBitENS0_8hash_opsIS2_EEE6insertEOS2_(ptr dead_on_unwind writable sret(%"struct.std::pair") align 8 %0, ptr noundef nonnull align 8 dereferenceable(49) %9, ptr noundef nonnull align 8 dereferenceable(64) %6)
          to label %11 unwind label %12

11:                                               ; preds = %3
  call void @_ZN5Yosys8DriveBitD2Ev(ptr noundef nonnull align 8 dereferenceable(64) %6) #3
  call void @llvm.lifetime.end.p0(i64 64, ptr %6) #3
  ret void

12:                                               ; preds = %3
  %13 = landingpad { ptr, i32 }
          cleanup
  %14 = extractvalue { ptr, i32 } %13, 0
  store ptr %14, ptr %7, align 8
  %15 = extractvalue { ptr, i32 } %13, 1
  store i32 %15, ptr %8, align 4
  call void @_ZN5Yosys8DriveBitD2Ev(ptr noundef nonnull align 8 dereferenceable(64) %6) #3
  call void @llvm.lifetime.end.p0(i64 64, ptr %6) #3
  br label %16

16:                                               ; preds = %12
  %17 = load ptr, ptr %7, align 8
  %18 = load i32, ptr %8, align 4
  %19 = insertvalue { ptr, i32 } poison, ptr %17, 0
  %20 = insertvalue { ptr, i32 } %19, i32 %18, 1
  resume { ptr, i32 } %20
}

; Function Attrs: mustprogress uwtable
define linkonce_odr void @_ZN5Yosys16DriveBitMultiple5mergeERKS0_(ptr noundef nonnull align 8 dereferenceable(56) %0, ptr noundef nonnull align 8 dereferenceable(56) %1) #4 comdat align 2 {
  %3 = alloca ptr, align 8
  %4 = alloca ptr, align 8
  %5 = alloca ptr, align 8
  %6 = alloca %"class.Yosys::hashlib::pool<Yosys::DriveBit>::const_iterator", align 8
  %7 = alloca { ptr, i32 }, align 8
  %8 = alloca %"class.Yosys::hashlib::pool<Yosys::DriveBit>::const_iterator", align 8
  %9 = alloca { ptr, i32 }, align 8
  %10 = alloca ptr, align 8
  %11 = alloca %"class.Yosys::hashlib::pool<Yosys::DriveBit>::const_iterator", align 8
  store ptr %0, ptr %3, align 8, !tbaa !31
  store ptr %1, ptr %4, align 8, !tbaa !31
  %12 = load ptr, ptr %3, align 8
  call void @llvm.lifetime.start.p0(i64 8, ptr %5) #3
  %13 = load ptr, ptr %4, align 8, !tbaa !31
  %14 = getelementptr inbounds nuw %"struct.Yosys::DriveBitMultiple", ptr %13, i32 0, i32 0
  store ptr %14, ptr %5, align 8, !tbaa !33
  call void @llvm.lifetime.start.p0(i64 16, ptr %6) #3
  %15 = load ptr, ptr %5, align 8, !tbaa !33
  %16 = call { ptr, i32 } @_ZNK5Yosys7hashlib4poolINS_8DriveBitENS0_8hash_opsIS2_EEE5beginEv(ptr noundef nonnull align 8 dereferenceable(49) %15)
  store { ptr, i32 } %16, ptr %7, align 8
  call void @llvm.memcpy.p0.p0.i64(ptr align 8 %6, ptr align 8 %7, i64 12, i1 false)
  call void @llvm.lifetime.start.p0(i64 16, ptr %8) #3
  %17 = load ptr, ptr %5, align 8, !tbaa !33
  %18 = call { ptr, i32 } @_ZNK5Yosys7hashlib4poolINS_8DriveBitENS0_8hash_opsIS2_EEE3endEv(ptr noundef nonnull align 8 dereferenceable(49) %17)
  store { ptr, i32 } %18, ptr %9, align 8
  call void @llvm.memcpy.p0.p0.i64(ptr align 8 %8, ptr align 8 %9, i64 12, i1 false)
  br label %19

19:                                               ; preds = %25, %2
  %20 = call noundef zeroext i1 @_ZNK5Yosys7hashlib4poolINS_8DriveBitENS0_8hash_opsIS2_EEE14const_iteratorneERKS6_(ptr noundef nonnull align 8 dereferenceable(12) %6, ptr noundef nonnull align 8 dereferenceable(12) %8)
  br i1 %20, label %22, label %21

21:                                               ; preds = %19
  call void @llvm.lifetime.end.p0(i64 16, ptr %8) #3
  call void @llvm.lifetime.end.p0(i64 16, ptr %6) #3
  call void @llvm.lifetime.end.p0(i64 8, ptr %5) #3
  br label %31

22:                                               ; preds = %19
  call void @llvm.lifetime.start.p0(i64 8, ptr %10) #3
  %23 = call noundef nonnull align 8 dereferenceable(64) ptr @_ZNK5Yosys7hashlib4poolINS_8DriveBitENS0_8hash_opsIS2_EEE14const_iteratordeEv(ptr noundef nonnull align 8 dereferenceable(12) %6)
  store ptr %23, ptr %10, align 8, !tbaa !6
  %24 = load ptr, ptr %10, align 8, !tbaa !6
  call void @_ZN5Yosys16DriveBitMultiple5mergeERKNS_8DriveBitE(ptr noundef nonnull align 8 dereferenceable(56) %12, ptr noundef nonnull align 8 dereferenceable(64) %24)
  call void @llvm.lifetime.end.p0(i64 8, ptr %10) #3
  br label %25

25:                                               ; preds = %22
  %26 = call { ptr, i32 } @_ZN5Yosys7hashlib4poolINS_8DriveBitENS0_8hash_opsIS2_EEE14const_iteratorppEv(ptr noundef nonnull align 8 dereferenceable(12) %6)
  %27 = getelementptr inbounds nuw { ptr, i32 }, ptr %11, i32 0, i32 0
  %28 = extractvalue { ptr, i32 } %26, 0
  store ptr %28, ptr %27, align 8
  %29 = getelementptr inbounds nuw { ptr, i32 }, ptr %11, i32 0, i32 1
  %30 = extractvalue { ptr, i32 } %26, 1
  store i32 %30, ptr %29, align 8
  br label %19

31:                                               ; preds = %21
  ret void
}

; Function Attrs: mustprogress nounwind uwtable
define linkonce_odr noundef nonnull align 8 dereferenceable(56) ptr @_ZNK5Yosys8DriveBit8multipleEv(ptr noundef nonnull align 8 dereferenceable(64) %0) #7 comdat align 2 {
  %2 = alloca ptr, align 8
  store ptr %0, ptr %2, align 8, !tbaa !6
  %3 = load ptr, ptr %2, align 8
  br label %4

4:                                                ; preds = %1
  br label %5

5:                                                ; preds = %4
  %6 = getelementptr inbounds nuw %"struct.Yosys::DriveBit", ptr %3, i32 0, i32 1
  ret ptr %6
}

; Function Attrs: mustprogress nounwind uwtable
define linkonce_odr noundef zeroext i8 @_ZNK5Yosys8DriveBit4typeEv(ptr noundef nonnull align 8 dereferenceable(64) %0) #7 comdat align 2 {
  %2 = alloca ptr, align 8
  store ptr %0, ptr %2, align 8, !tbaa !6
  %3 = load ptr, ptr %2, align 8
  %4 = getelementptr inbounds nuw %"struct.Yosys::DriveBit", ptr %3, i32 0, i32 0
  %5 = load i8, ptr %4, align 8, !tbaa !13
  ret i8 %5
}

; Function Attrs: mustprogress uwtable
define void @_ZN5Yosys16DriveBitMultiple5mergeERKNS_8DriveBitE(ptr noundef nonnull align 8 dereferenceable(56) %0, ptr noundef nonnull align 8 dereferenceable(64) %1) #4 align 2 {
  %3 = alloca ptr, align 8
  %4 = alloca ptr, align 8
  %5 = alloca %"struct.std::pair", align 8
  store ptr %0, ptr %3, align 8, !tbaa !31
  store ptr %1, ptr %4, align 8, !tbaa !6
  %6 = load ptr, ptr %3, align 8
  %7 = load ptr, ptr %4, align 8, !tbaa !6
  %8 = call noundef zeroext i8 @_ZNK5Yosys8DriveBit4typeEv(ptr noundef nonnull align 8 dereferenceable(64) %7)
  %9 = icmp eq i8 %8, 0
  br i1 %9, label %10, label %11

10:                                               ; preds = %2
  br label %21

11:                                               ; preds = %2
  %12 = load ptr, ptr %4, align 8, !tbaa !6
  %13 = call noundef zeroext i8 @_ZNK5Yosys8DriveBit4typeEv(ptr noundef nonnull align 8 dereferenceable(64) %12)
  %14 = icmp eq i8 %13, 4
  br i1 %14, label %15, label %18

15:                                               ; preds = %11
  %16 = load ptr, ptr %4, align 8, !tbaa !6
  %17 = call noundef nonnull align 8 dereferenceable(56) ptr @_ZNK5Yosys8DriveBit8multipleEv(ptr noundef nonnull align 8 dereferenceable(64) %16)
  call void @_ZN5Yosys16DriveBitMultiple5mergeERKS0_(ptr noundef nonnull align 8 dereferenceable(56) %6, ptr noundef nonnull align 8 dereferenceable(56) %17)
  br label %21

18:                                               ; preds = %11
  %19 = getelementptr inbounds nuw %"struct.Yosys::DriveBitMultiple", ptr %6, i32 0, i32 0
  %20 = load ptr, ptr %4, align 8, !tbaa !6
  call void @llvm.lifetime.start.p0(i64 24, ptr %5) #3
  call void @_ZN5Yosys7hashlib4poolINS_8DriveBitENS0_8hash_opsIS2_EEE7emplaceIJRKS2_EEESt4pairINS5_8iteratorEbEDpOT_(ptr dead_on_unwind writable sret(%"struct.std::pair") align 8 %5, ptr noundef nonnull align 8 dereferenceable(49) %19, ptr noundef nonnull align 8 dereferenceable(64) %20)
  call void @llvm.lifetime.end.p0(i64 24, ptr %5) #3
  br label %21

21:                                               ; preds = %18, %15, %10
  ret void
}