; Function Attrs: mustprogress uwtable
define void @_ZN5Yosys16DriveBitMultiple5mergeERKNS_8DriveBitE(ptr noundef nonnull align 8 dereferenceable(56) %0, ptr noundef nonnull align 8 dereferenceable(64) %1) local_unnamed_addr #5 align 2 personality ptr @__gxx_personality_v0 {
  %3 = alloca %"struct.Yosys::DriveBit", align 8
  %4 = alloca %"struct.std::pair", align 8
  %5 = load i8, ptr %1, align 8, !tbaa !6
  switch i8 %5, label %19 [
    i8 0, label %_ZN5Yosys16DriveBitMultiple5mergeERKS0_.exit
    i8 4, label %6
  ]

6:                                                ; preds = %2
  %7 = getelementptr inbounds nuw i8, ptr %1, i64 32
  %8 = getelementptr inbounds nuw i8, ptr %1, i64 40
  %9 = load ptr, ptr %8, align 8, !tbaa !30
  %10 = load ptr, ptr %7, align 8, !tbaa !28
  %11 = ptrtoint ptr %9 to i64
  %12 = ptrtoint ptr %10 to i64
  %13 = sub i64 %11, %12
  %14 = sdiv exact i64 %13, 72
  %15 = and i64 %14, 4294967295
  %.not11 = icmp eq i64 %15, 0
  br i1 %.not11, label %_ZN5Yosys16DriveBitMultiple5mergeERKS0_.exit, label %.lr.ph.preheader

.lr.ph.preheader:                                 ; preds = %6
  %sext = shl i64 %14, 32
  %16 = ashr exact i64 %sext, 32
  br label %.lr.ph

.lr.ph:                                           ; preds = %.lr.ph.preheader, %.lr.ph
  %indvars.iv = phi i64 [ %16, %.lr.ph.preheader ], [ %indvars.iv.next, %.lr.ph ]
  %indvars.iv.next = add nsw i64 %indvars.iv, -1
  %17 = load ptr, ptr %7, align 8, !tbaa !28
  %18 = getelementptr inbounds nuw %"struct.Yosys::hashlib::pool<Yosys::DriveBit>::entry_t", ptr %17, i64 %indvars.iv.next
  tail call void @_ZN5Yosys16DriveBitMultiple5mergeERKNS_8DriveBitE(ptr noundef nonnull align 8 dereferenceable(56) %0, ptr noundef nonnull align 8 dereferenceable(64) %18)
  %.not = icmp eq i64 %indvars.iv.next, 0
  br i1 %.not, label %_ZN5Yosys16DriveBitMultiple5mergeERKS0_.exit, label %.lr.ph

19:                                               ; preds = %2
  call void @llvm.lifetime.start.p0(i64 24, ptr nonnull %4) #28
  call void @llvm.lifetime.start.p0(i64 64, ptr nonnull %3) #28, !noalias !41
  store i8 0, ptr %3, align 8, !tbaa !6, !noalias !41
  %20 = call noundef nonnull align 8 dereferenceable(64) ptr @_ZN5Yosys8DriveBitaSERKS0_(ptr noundef nonnull align 8 dereferenceable(64) %3, ptr noundef nonnull align 8 dereferenceable(64) %1), !noalias !41
  invoke void @_ZN5Yosys7hashlib4poolINS_8DriveBitENS0_8hash_opsIS2_EEE6insertEOS2_(ptr dead_on_unwind nonnull writable sret(%"struct.std::pair") align 8 %4, ptr noundef nonnull align 8 dereferenceable(49) %0, ptr noundef nonnull align 8 dereferenceable(64) %3)
          to label %_ZN5Yosys7hashlib4poolINS_8DriveBitENS0_8hash_opsIS2_EEE7emplaceIJRKS2_EEESt4pairINS5_8iteratorEbEDpOT_.exit unwind label %21

21:                                               ; preds = %19
  %22 = landingpad { ptr, i32 }
          cleanup
  call void @_ZN5Yosys8DriveBit8set_noneEv(ptr noundef nonnull align 8 dereferenceable(64) %3)
  call void @llvm.lifetime.end.p0(i64 64, ptr nonnull %3) #28, !noalias !41
  resume { ptr, i32 } %22

_ZN5Yosys7hashlib4poolINS_8DriveBitENS0_8hash_opsIS2_EEE7emplaceIJRKS2_EEESt4pairINS5_8iteratorEbEDpOT_.exit: ; preds = %19
  call void @_ZN5Yosys8DriveBit8set_noneEv(ptr noundef nonnull align 8 dereferenceable(64) %3)
  call void @llvm.lifetime.end.p0(i64 64, ptr nonnull %3) #28, !noalias !41
  call void @llvm.lifetime.end.p0(i64 24, ptr nonnull %4) #28
  br label %_ZN5Yosys16DriveBitMultiple5mergeERKS0_.exit

_ZN5Yosys16DriveBitMultiple5mergeERKS0_.exit:     ; preds = %.lr.ph, %6, %2, %_ZN5Yosys7hashlib4poolINS_8DriveBitENS0_8hash_opsIS2_EEE7emplaceIJRKS2_EEESt4pairINS5_8iteratorEbEDpOT_.exit
  ret void
}